target datalayout = "e-m:e-p270:32:32-p271:32:32-p272:64:64-i64:64-i128:128-f80:128-n8:16:32:64-S128"
target triple = "x86_64-pc-linux-gnu"

%class.ThreadCritical = type { i8 }

@_ZN10MemTracker15_tracking_levelE = external global i32, align 4

; Function Attrs: mustprogress nounwind uwtable
define linkonce_odr hidden void @_ZN10MemTracker16assert_post_initEv() #1 comdat align 2 {
  ret void
}

; Function Attrs: mustprogress nounwind uwtable
define linkonce_odr hidden void @_ZN10MemTracker29record_virtual_memory_releaseEPhm(ptr noundef %0, i64 noundef %1) #1 comdat align 2 {
  %3 = alloca ptr, align 8
  %4 = alloca i64, align 8
  store ptr %0, ptr %3, align 8
  store i64 %1, ptr %4, align 8
  call void @_ZN10MemTracker16assert_post_initEv()
  %5 = call noundef zeroext i1 @_ZN10MemTracker7enabledEv()
  br i1 %5, label %7, label %6

6:                                                ; preds = %2
  br label %14

7:                                                ; preds = %2
  %8 = load ptr, ptr %3, align 8
  %9 = icmp ne ptr %8, null
  br i1 %9, label %10, label %14

10:                                               ; preds = %7
  %11 = load ptr, ptr %3, align 8
  %12 = load i64, ptr %4, align 8
  %13 = call noundef zeroext i1 @_ZN20VirtualMemoryTracker22remove_released_regionEPhm(ptr noundef %11, i64 noundef %12)
  br label %14

14:                                               ; preds = %10, %7, %6
  ret void
}

; Function Attrs: mustprogress nounwind uwtable
define linkonce_odr hidden noundef zeroext i1 @_ZN10MemTracker7enabledEv() #1 comdat align 2 {
  %1 = load i32, ptr @_ZN10MemTracker15_tracking_levelE, align 4
  %2 = icmp sgt i32 %1, 1
  ret i1 %2
}

; Function Attrs: mustprogress nounwind uwtable
define hidden noundef zeroext i1 @_ZN2os12unmap_memoryEPcm(ptr noundef %0, i64 noundef %1) #1 align 2 {
  %3 = alloca ptr, align 8
  %4 = alloca i64, align 8
  %5 = alloca i8, align 1
  %6 = alloca %class.ThreadCritical, align 1
  store ptr %0, ptr %3, align 8
  store i64 %1, ptr %4, align 8
  %7 = call noundef zeroext i1 @_ZN10MemTracker7enabledEv()
  br i1 %7, label %8, label %19

8:                                                ; preds = %2
  call void @_ZN14ThreadCriticalC1Ev(ptr noundef nonnull align 1 dereferenceable(1) %6)
  %9 = load ptr, ptr %3, align 8
  %10 = load i64, ptr %4, align 8
  %11 = call noundef zeroext i1 @_ZN2os15pd_unmap_memoryEPcm(ptr noundef %9, i64 noundef %10)
  %12 = zext i1 %11 to i8
  store i8 %12, ptr %5, align 1
  %13 = load i8, ptr %5, align 1
  %14 = trunc i8 %13 to i1
  br i1 %14, label %15, label %18

15:                                               ; preds = %8
  %16 = load ptr, ptr %3, align 8
  %17 = load i64, ptr %4, align 8
  call void @_ZN10MemTracker29record_virtual_memory_releaseEPhm(ptr noundef %16, i64 noundef %17)
  br label %18

18:                                               ; preds = %15, %8
  call void @_ZN14ThreadCriticalD1Ev(ptr noundef nonnull align 1 dereferenceable(1) %6) #13
  br label %24

19:                                               ; preds = %2
  %20 = load ptr, ptr %3, align 8
  %21 = load i64, ptr %4, align 8
  %22 = call noundef zeroext i1 @_ZN2os15pd_unmap_memoryEPcm(ptr noundef %20, i64 noundef %21)
  %23 = zext i1 %22 to i8
  store i8 %23, ptr %5, align 1
  br label %24

24:                                               ; preds = %19, %18
  %25 = load i8, ptr %5, align 1
  %26 = trunc i8 %25 to i1
  ret i1 %26
}