; Function Attrs: mustprogress nounwind uwtable
define hidden noundef zeroext i1 @_ZN2os12unmap_memoryEPcm(ptr noundef %0, i64 noundef %1) local_unnamed_addr #3 align 2 {
  %3 = alloca %class.ThreadCritical, align 1
  %4 = load i32, ptr @_ZN10MemTracker15_tracking_levelE, align 4
  %5 = icmp sgt i32 %4, 1
  br i1 %5, label %6, label %14

6:                                                ; preds = %2
  call void @_ZN14ThreadCriticalC1Ev(ptr noundef nonnull align 1 dereferenceable(1) %3) #28
  %7 = call noundef zeroext i1 @_ZN2os15pd_unmap_memoryEPcm(ptr noundef %0, i64 noundef %1) #28
  br i1 %7, label %8, label %_ZN10MemTracker29record_virtual_memory_releaseEPhm.exit

8:                                                ; preds = %6
  %9 = load i32, ptr @_ZN10MemTracker15_tracking_levelE, align 4
  %10 = icmp sgt i32 %9, 1
  %11 = icmp ne ptr %0, null
  %or.cond.i = and i1 %11, %10
  br i1 %or.cond.i, label %12, label %_ZN10MemTracker29record_virtual_memory_releaseEPhm.exit

12:                                               ; preds = %8
  %13 = call noundef zeroext i1 @_ZN20VirtualMemoryTracker22remove_released_regionEPhm(ptr noundef nonnull %0, i64 noundef %1) #28
  br label %_ZN10MemTracker29record_virtual_memory_releaseEPhm.exit

_ZN10MemTracker29record_virtual_memory_releaseEPhm.exit: ; preds = %12, %8, %6
  call void @_ZN14ThreadCriticalD1Ev(ptr noundef nonnull align 1 dereferenceable(1) %3) #28
  br label %16

14:                                               ; preds = %2
  %15 = tail call noundef zeroext i1 @_ZN2os15pd_unmap_memoryEPcm(ptr noundef %0, i64 noundef %1) #28
  br label %16

16:                                               ; preds = %14, %_ZN10MemTracker29record_virtual_memory_releaseEPhm.exit
  %.0.in = phi i1 [ %7, %_ZN10MemTracker29record_virtual_memory_releaseEPhm.exit ], [ %15, %14 ]
  ret i1 %.0.in
}